ccopy_reg
_reconstructor
p0
(cCalibration.Utils
CalibrationData
p1
c__builtin__
object
p2
Ntp3
Rp4
(dp5
Vellipsecenter
p6
(I0
I0
tp7
sVintersectPoints
p8
(lp9
sVring_radius
p10
(lp11
I14
aI32
aI194
aI214
aI320
aI340
asVcenter_dartboard
p12
(I400
I400
tp13
sVsectorangle
p14
F0.3141592653589793
sVangleZone_horizontal
p15
(I-30
I-20
tp16
sVangleZone_vertical
p17
g7
sVdestinationPoints
p18
(lp19
sVtransformation_matrix
p20
(lp21
sb.